target datalayout = "e-m:e-p270:32:32-p271:32:32-p272:64:64-i64:64-i128:128-f80:128-n8:16:32:64-S128"
target triple = "x86_64-pc-linux-gnu"

@.str.14 = private unnamed_addr constant [26 x i8] c"../openssl/test/rpktest.c\00", align 1
@__const.test_rpk_api.cert_type_dups = private unnamed_addr constant [3 x i8] c"\02\00\00", align 1
@__const.test_rpk_api.cert_type_bad = private unnamed_addr constant [1 x i8] c"\FF", align 1
@__const.test_rpk_api.cert_type_extra = private unnamed_addr constant [3 x i8] c"\02\00\FF", align 1
@__const.test_rpk_api.cert_type_unsup = private unnamed_addr constant [2 x i8] c"\01\03", align 1
@__const.test_rpk_api.cert_type_just_rpk = private unnamed_addr constant [1 x i8] c"\02", align 1
@.str.28 = private unnamed_addr constant [126 x i8] c"create_ssl_ctx_pair(NULL, TLS_server_method(), TLS_client_method(), TLS1_2_VERSION, TLS1_2_VERSION, &sctx, &cctx, NULL, NULL)\00", align 1
@.str.29 = private unnamed_addr constant [76 x i8] c"SSL_CTX_set1_server_cert_type(sctx, cert_type_dups, sizeof(cert_type_dups))\00", align 1
@.str.30 = private unnamed_addr constant [74 x i8] c"SSL_CTX_set1_server_cert_type(sctx, cert_type_bad, sizeof(cert_type_bad))\00", align 1
@.str.31 = private unnamed_addr constant [78 x i8] c"SSL_CTX_set1_server_cert_type(sctx, cert_type_extra, sizeof(cert_type_extra))\00", align 1
@.str.32 = private unnamed_addr constant [78 x i8] c"SSL_CTX_set1_server_cert_type(sctx, cert_type_unsup, sizeof(cert_type_unsup))\00", align 1
@.str.33 = private unnamed_addr constant [86 x i8] c"SSL_CTX_set1_server_cert_type(sctx, cert_type_just_x509, sizeof(cert_type_just_x509))\00", align 1
@.str.34 = private unnamed_addr constant [84 x i8] c"SSL_CTX_set1_server_cert_type(sctx, cert_type_just_rpk, sizeof(cert_type_just_rpk))\00", align 1

; Function Attrs: nounwind uwtable
define internal i32 @test_rpk_api() #0 {
  %1 = alloca i32, align 4
  %2 = alloca ptr, align 8
  %3 = alloca ptr, align 8
  %4 = alloca [3 x i8], align 1
  %5 = alloca [1 x i8], align 1
  %6 = alloca [3 x i8], align 1
  %7 = alloca [2 x i8], align 1
  %8 = alloca [1 x i8], align 1
  %9 = alloca [1 x i8], align 1
  call void @llvm.lifetime.start.p0(i64 4, ptr %1) #5
  store i32 0, ptr %1, align 4, !tbaa !11
  call void @llvm.lifetime.start.p0(i64 8, ptr %2) #5
  store ptr null, ptr %2, align 8, !tbaa !13
  call void @llvm.lifetime.start.p0(i64 8, ptr %3) #5
  store ptr null, ptr %3, align 8, !tbaa !13
  call void @llvm.lifetime.start.p0(i64 3, ptr %4) #5
  call void @llvm.memcpy.p0.p0.i64(ptr align 1 %4, ptr align 1 @__const.test_rpk_api.cert_type_dups, i64 3, i1 false)
  call void @llvm.lifetime.start.p0(i64 1, ptr %5) #5
  call void @llvm.memcpy.p0.p0.i64(ptr align 1 %5, ptr align 1 @__const.test_rpk_api.cert_type_bad, i64 1, i1 false)
  call void @llvm.lifetime.start.p0(i64 3, ptr %6) #5
  call void @llvm.memcpy.p0.p0.i64(ptr align 1 %6, ptr align 1 @__const.test_rpk_api.cert_type_extra, i64 3, i1 false)
  call void @llvm.lifetime.start.p0(i64 2, ptr %7) #5
  call void @llvm.memcpy.p0.p0.i64(ptr align 1 %7, ptr align 1 @__const.test_rpk_api.cert_type_unsup, i64 2, i1 false)
  call void @llvm.lifetime.start.p0(i64 1, ptr %8) #5
  call void @llvm.memset.p0.i64(ptr align 1 %8, i8 0, i64 1, i1 false)
  call void @llvm.lifetime.start.p0(i64 1, ptr %9) #5
  call void @llvm.memcpy.p0.p0.i64(ptr align 1 %9, ptr align 1 @__const.test_rpk_api.cert_type_just_rpk, i64 1, i1 false)
  %10 = call ptr @TLS_server_method()
  %11 = call ptr @TLS_client_method()
  %12 = call i32 @create_ssl_ctx_pair(ptr noundef null, ptr noundef %10, ptr noundef %11, i32 noundef 771, i32 noundef 771, ptr noundef %3, ptr noundef %2, ptr noundef null, ptr noundef null)
  %13 = icmp ne i32 %12, 0
  %14 = zext i1 %13 to i32
  %15 = call i32 @test_true(ptr noundef @.str.14, i32 noundef 693, ptr noundef @.str.28, i32 noundef %14)
  %16 = icmp ne i32 %15, 0
  br i1 %16, label %18, label %17

17:                                               ; preds = %0
  br label %73

18:                                               ; preds = %0
  %19 = load ptr, ptr %3, align 8, !tbaa !13
  %20 = getelementptr inbounds [3 x i8], ptr %4, i64 0, i64 0
  %21 = call i32 @SSL_CTX_set1_server_cert_type(ptr noundef %19, ptr noundef %20, i64 noundef 3)
  %22 = icmp ne i32 %21, 0
  %23 = zext i1 %22 to i32
  %24 = call i32 @test_false(ptr noundef @.str.14, i32 noundef 696, ptr noundef @.str.29, i32 noundef %23)
  %25 = icmp ne i32 %24, 0
  br i1 %25, label %27, label %26

26:                                               ; preds = %18
  br label %73

27:                                               ; preds = %18
  %28 = load ptr, ptr %3, align 8, !tbaa !13
  %29 = getelementptr inbounds [1 x i8], ptr %5, i64 0, i64 0
  %30 = call i32 @SSL_CTX_set1_server_cert_type(ptr noundef %28, ptr noundef %29, i64 noundef 1)
  %31 = icmp ne i32 %30, 0
  %32 = zext i1 %31 to i32
  %33 = call i32 @test_false(ptr noundef @.str.14, i32 noundef 699, ptr noundef @.str.30, i32 noundef %32)
  %34 = icmp ne i32 %33, 0
  br i1 %34, label %36, label %35

35:                                               ; preds = %27
  br label %73

36:                                               ; preds = %27
  %37 = load ptr, ptr %3, align 8, !tbaa !13
  %38 = getelementptr inbounds [3 x i8], ptr %6, i64 0, i64 0
  %39 = call i32 @SSL_CTX_set1_server_cert_type(ptr noundef %37, ptr noundef %38, i64 noundef 3)
  %40 = icmp ne i32 %39, 0
  %41 = zext i1 %40 to i32
  %42 = call i32 @test_false(ptr noundef @.str.14, i32 noundef 702, ptr noundef @.str.31, i32 noundef %41)
  %43 = icmp ne i32 %42, 0
  br i1 %43, label %45, label %44

44:                                               ; preds = %36
  br label %73

45:                                               ; preds = %36
  %46 = load ptr, ptr %3, align 8, !tbaa !13
  %47 = getelementptr inbounds [2 x i8], ptr %7, i64 0, i64 0
  %48 = call i32 @SSL_CTX_set1_server_cert_type(ptr noundef %46, ptr noundef %47, i64 noundef 2)
  %49 = icmp ne i32 %48, 0
  %50 = zext i1 %49 to i32
  %51 = call i32 @test_false(ptr noundef @.str.14, i32 noundef 705, ptr noundef @.str.32, i32 noundef %50)
  %52 = icmp ne i32 %51, 0
  br i1 %52, label %54, label %53

53:                                               ; preds = %45
  br label %73

54:                                               ; preds = %45
  %55 = load ptr, ptr %3, align 8, !tbaa !13
  %56 = getelementptr inbounds [1 x i8], ptr %8, i64 0, i64 0
  %57 = call i32 @SSL_CTX_set1_server_cert_type(ptr noundef %55, ptr noundef %56, i64 noundef 1)
  %58 = icmp ne i32 %57, 0
  %59 = zext i1 %58 to i32
  %60 = call i32 @test_true(ptr noundef @.str.14, i32 noundef 708, ptr noundef @.str.33, i32 noundef %59)
  %61 = icmp ne i32 %60, 0
  br i1 %61, label %63, label %62

62:                                               ; preds = %54
  br label %73

63:                                               ; preds = %54
  %64 = load ptr, ptr %3, align 8, !tbaa !13
  %65 = getelementptr inbounds [1 x i8], ptr %9, i64 0, i64 0
  %66 = call i32 @SSL_CTX_set1_server_cert_type(ptr noundef %64, ptr noundef %65, i64 noundef 1)
  %67 = icmp ne i32 %66, 0
  %68 = zext i1 %67 to i32
  %69 = call i32 @test_true(ptr noundef @.str.14, i32 noundef 711, ptr noundef @.str.34, i32 noundef %68)
  %70 = icmp ne i32 %69, 0
  br i1 %70, label %72, label %71

71:                                               ; preds = %63
  br label %73

72:                                               ; preds = %63
  store i32 1, ptr %1, align 4, !tbaa !11
  br label %73

73:                                               ; preds = %72, %71, %62, %53, %44, %35, %26, %17
  %74 = load ptr, ptr %3, align 8, !tbaa !13
  call void @SSL_CTX_free(ptr noundef %74)
  %75 = load ptr, ptr %2, align 8, !tbaa !13
  call void @SSL_CTX_free(ptr noundef %75)
  %76 = load i32, ptr %1, align 4, !tbaa !11
  call void @llvm.lifetime.end.p0(i64 1, ptr %9) #5
  call void @llvm.lifetime.end.p0(i64 1, ptr %8) #5
  call void @llvm.lifetime.end.p0(i64 2, ptr %7) #5
  call void @llvm.lifetime.end.p0(i64 3, ptr %6) #5
  call void @llvm.lifetime.end.p0(i64 1, ptr %5) #5
  call void @llvm.lifetime.end.p0(i64 3, ptr %4) #5
  call void @llvm.lifetime.end.p0(i64 8, ptr %3) #5
  call void @llvm.lifetime.end.p0(i64 8, ptr %2) #5
  call void @llvm.lifetime.end.p0(i64 4, ptr %1) #5
  ret i32 %76
}