; Function Attrs: nounwind uwtable
define internal range(i32 0, 2) i32 @test_rpk_api() #1 {
  %1 = alloca ptr, align 8
  %2 = alloca ptr, align 8
  %3 = alloca [3 x i8], align 1
  %4 = alloca [1 x i8], align 1
  %5 = alloca [3 x i8], align 1
  %6 = alloca [2 x i8], align 2
  %7 = alloca [1 x i8], align 1
  %8 = alloca [1 x i8], align 1
  call void @llvm.lifetime.start.p0(i64 8, ptr nonnull %1) #5
  store ptr null, ptr %1, align 8, !tbaa !11
  call void @llvm.lifetime.start.p0(i64 8, ptr nonnull %2) #5
  store ptr null, ptr %2, align 8, !tbaa !11
  call void @llvm.lifetime.start.p0(i64 3, ptr nonnull %3) #5
  call void @llvm.memcpy.p0.p0.i64(ptr noundef nonnull align 1 dereferenceable(3) %3, ptr noundef nonnull align 1 dereferenceable(3) @__const.test_rpk_api.cert_type_dups, i64 3, i1 false)
  call void @llvm.lifetime.start.p0(i64 1, ptr nonnull %4) #5
  store i8 -1, ptr %4, align 1
  call void @llvm.lifetime.start.p0(i64 3, ptr nonnull %5) #5
  call void @llvm.memcpy.p0.p0.i64(ptr noundef nonnull align 1 dereferenceable(3) %5, ptr noundef nonnull align 1 dereferenceable(3) @__const.test_rpk_api.cert_type_extra, i64 3, i1 false)
  call void @llvm.lifetime.start.p0(i64 2, ptr nonnull %6) #5
  store i16 769, ptr %6, align 2
  call void @llvm.lifetime.start.p0(i64 1, ptr nonnull %7) #5
  store i8 0, ptr %7, align 1
  call void @llvm.lifetime.start.p0(i64 1, ptr nonnull %8) #5
  store i8 2, ptr %8, align 1
  %9 = tail call ptr @TLS_server_method() #5
  %10 = tail call ptr @TLS_client_method() #5
  %11 = call i32 @create_ssl_ctx_pair(ptr noundef null, ptr noundef %9, ptr noundef %10, i32 noundef 771, i32 noundef 771, ptr noundef nonnull %2, ptr noundef nonnull %1, ptr noundef null, ptr noundef null) #5
  %12 = icmp ne i32 %11, 0
  %13 = zext i1 %12 to i32
  %14 = call i32 @test_true(ptr noundef nonnull @.str.14, i32 noundef 693, ptr noundef nonnull @.str.28, i32 noundef %13) #5
  %.not = icmp eq i32 %14, 0
  br i1 %.not, label %51, label %15

15:                                               ; preds = %0
  %16 = load ptr, ptr %2, align 8, !tbaa !11
  %17 = call i32 @SSL_CTX_set1_server_cert_type(ptr noundef %16, ptr noundef nonnull %3, i64 noundef 3) #5
  %18 = icmp ne i32 %17, 0
  %19 = zext i1 %18 to i32
  %20 = call i32 @test_false(ptr noundef nonnull @.str.14, i32 noundef 696, ptr noundef nonnull @.str.29, i32 noundef %19) #5
  %.not1 = icmp eq i32 %20, 0
  br i1 %.not1, label %51, label %21

21:                                               ; preds = %15
  %22 = load ptr, ptr %2, align 8, !tbaa !11
  %23 = call i32 @SSL_CTX_set1_server_cert_type(ptr noundef %22, ptr noundef nonnull %4, i64 noundef 1) #5
  %24 = icmp ne i32 %23, 0
  %25 = zext i1 %24 to i32
  %26 = call i32 @test_false(ptr noundef nonnull @.str.14, i32 noundef 699, ptr noundef nonnull @.str.30, i32 noundef %25) #5
  %.not2 = icmp eq i32 %26, 0
  br i1 %.not2, label %51, label %27

27:                                               ; preds = %21
  %28 = load ptr, ptr %2, align 8, !tbaa !11
  %29 = call i32 @SSL_CTX_set1_server_cert_type(ptr noundef %28, ptr noundef nonnull %5, i64 noundef 3) #5
  %30 = icmp ne i32 %29, 0
  %31 = zext i1 %30 to i32
  %32 = call i32 @test_false(ptr noundef nonnull @.str.14, i32 noundef 702, ptr noundef nonnull @.str.31, i32 noundef %31) #5
  %.not3 = icmp eq i32 %32, 0
  br i1 %.not3, label %51, label %33

33:                                               ; preds = %27
  %34 = load ptr, ptr %2, align 8, !tbaa !11
  %35 = call i32 @SSL_CTX_set1_server_cert_type(ptr noundef %34, ptr noundef nonnull %6, i64 noundef 2) #5
  %36 = icmp ne i32 %35, 0
  %37 = zext i1 %36 to i32
  %38 = call i32 @test_false(ptr noundef nonnull @.str.14, i32 noundef 705, ptr noundef nonnull @.str.32, i32 noundef %37) #5
  %.not4 = icmp eq i32 %38, 0
  br i1 %.not4, label %51, label %39

39:                                               ; preds = %33
  %40 = load ptr, ptr %2, align 8, !tbaa !11
  %41 = call i32 @SSL_CTX_set1_server_cert_type(ptr noundef %40, ptr noundef nonnull %7, i64 noundef 1) #5
  %42 = icmp ne i32 %41, 0
  %43 = zext i1 %42 to i32
  %44 = call i32 @test_true(ptr noundef nonnull @.str.14, i32 noundef 708, ptr noundef nonnull @.str.33, i32 noundef %43) #5
  %.not5 = icmp eq i32 %44, 0
  br i1 %.not5, label %51, label %45

45:                                               ; preds = %39
  %46 = load ptr, ptr %2, align 8, !tbaa !11
  %47 = call i32 @SSL_CTX_set1_server_cert_type(ptr noundef %46, ptr noundef nonnull %8, i64 noundef 1) #5
  %48 = icmp ne i32 %47, 0
  %49 = zext i1 %48 to i32
  %50 = call i32 @test_true(ptr noundef nonnull @.str.14, i32 noundef 711, ptr noundef nonnull @.str.34, i32 noundef %49) #5
  %.not6 = icmp ne i32 %50, 0
  %spec.select = zext i1 %.not6 to i32
  br label %51

51:                                               ; preds = %45, %39, %33, %27, %21, %15, %0
  %.0 = phi i32 [ 0, %39 ], [ 0, %33 ], [ 0, %27 ], [ 0, %21 ], [ 0, %15 ], [ 0, %0 ], [ %spec.select, %45 ]
  %52 = load ptr, ptr %2, align 8, !tbaa !11
  call void @SSL_CTX_free(ptr noundef %52) #5
  %53 = load ptr, ptr %1, align 8, !tbaa !11
  call void @SSL_CTX_free(ptr noundef %53) #5
  call void @llvm.lifetime.end.p0(i64 1, ptr nonnull %8) #5
  call void @llvm.lifetime.end.p0(i64 1, ptr nonnull %7) #5
  call void @llvm.lifetime.end.p0(i64 2, ptr nonnull %6) #5
  call void @llvm.lifetime.end.p0(i64 3, ptr nonnull %5) #5
  call void @llvm.lifetime.end.p0(i64 1, ptr nonnull %4) #5
  call void @llvm.lifetime.end.p0(i64 3, ptr nonnull %3) #5
  call void @llvm.lifetime.end.p0(i64 8, ptr nonnull %2) #5
  call void @llvm.lifetime.end.p0(i64 8, ptr nonnull %1) #5
  ret i32 %.0
}